; Function Attrs: nounwind uwtable
define noalias noundef ptr @Pla_GenPrimes(i32 noundef %0) local_unnamed_addr #0 {
  %2 = shl nuw i32 1, %0
  %3 = tail call noalias dereferenceable_or_null(16) ptr @malloc(i64 noundef 16) #19
  %4 = getelementptr inbounds nuw i8, ptr %3, i64 4
  store i32 0, ptr %4, align 4, !tbaa !21
  store i32 1000, ptr %3, align 8, !tbaa !23
  %5 = tail call noalias dereferenceable_or_null(4000) ptr @malloc(i64 noundef 4000) #19
  %6 = getelementptr inbounds nuw i8, ptr %3, i64 8
  store ptr %5, ptr %6, align 8, !tbaa !24
  %7 = tail call ptr @Pla_ManPrimesTable(i32 noundef %0)
  %8 = icmp sgt i32 %2, 2
  br i1 %8, label %.lr.ph, label %._crit_edge

.lr.ph:                                           ; preds = %1
  %9 = getelementptr i8, ptr %7, i64 8
  %.val = load ptr, ptr %9, align 8, !tbaa !15
  br label %10

10:                                               ; preds = %.lr.ph, %41
  %11 = phi ptr [ %5, %.lr.ph ], [ %.pre.i15, %41 ]
  %.013 = phi i32 [ 2, %.lr.ph ], [ %42, %41 ]
  %12 = lshr i32 %.013, 5
  %13 = zext nneg i32 %12 to i64
  %14 = getelementptr inbounds nuw i32, ptr %.val, i64 %13
  %15 = load i32, ptr %14, align 4, !tbaa !17
  %16 = and i32 %.013, 31
  %17 = shl nuw i32 1, %16
  %18 = and i32 %15, %17
  %.not = icmp eq i32 %18, 0
  br i1 %.not, label %41, label %19

19:                                               ; preds = %10
  %20 = load i32, ptr %4, align 4, !tbaa !21
  %21 = load i32, ptr %3, align 8, !tbaa !23
  %22 = icmp eq i32 %20, %21
  br i1 %22, label %23, label %Vec_IntPush.exit

23:                                               ; preds = %19
  %24 = icmp slt i32 %20, 16
  br i1 %24, label %25, label %30

25:                                               ; preds = %23
  %.not9.i.i = icmp eq ptr %11, null
  br i1 %.not9.i.i, label %28, label %26

26:                                               ; preds = %25
  %27 = tail call dereferenceable_or_null(64) ptr @realloc(ptr noundef nonnull %11, i64 noundef 64) #20
  br label %Vec_IntPush.exit.sink.split

28:                                               ; preds = %25
  %29 = tail call noalias dereferenceable_or_null(64) ptr @malloc(i64 noundef 64) #19
  br label %Vec_IntPush.exit.sink.split

30:                                               ; preds = %23
  %31 = shl nuw nsw i32 %20, 1
  %.not9.i9.i = icmp eq ptr %11, null
  %32 = zext nneg i32 %31 to i64
  %33 = shl nuw nsw i64 %32, 2
  br i1 %.not9.i9.i, label %36, label %34

34:                                               ; preds = %30
  %35 = tail call ptr @realloc(ptr noundef nonnull %11, i64 noundef %33) #20
  br label %Vec_IntPush.exit.sink.split

36:                                               ; preds = %30
  %37 = tail call noalias ptr @malloc(i64 noundef %33) #19
  br label %Vec_IntPush.exit.sink.split

Vec_IntPush.exit.sink.split:                      ; preds = %34, %36, %26, %28
  %.sink18 = phi ptr [ %27, %26 ], [ %29, %28 ], [ %35, %34 ], [ %37, %36 ]
  %.sink = phi i32 [ 16, %26 ], [ 16, %28 ], [ %31, %34 ], [ %31, %36 ]
  store ptr %.sink18, ptr %6, align 8, !tbaa !24
  store i32 %.sink, ptr %3, align 8, !tbaa !23
  br label %Vec_IntPush.exit

Vec_IntPush.exit:                                 ; preds = %Vec_IntPush.exit.sink.split, %19
  %.pre.i16 = phi ptr [ %11, %19 ], [ %.sink18, %Vec_IntPush.exit.sink.split ]
  %38 = add nsw i32 %20, 1
  store i32 %38, ptr %4, align 4, !tbaa !21
  %39 = sext i32 %20 to i64
  %40 = getelementptr inbounds i32, ptr %.pre.i16, i64 %39
  store i32 %.013, ptr %40, align 4, !tbaa !17
  br label %41

41:                                               ; preds = %10, %Vec_IntPush.exit
  %.pre.i15 = phi ptr [ %11, %10 ], [ %.pre.i16, %Vec_IntPush.exit ]
  %42 = add nuw nsw i32 %.013, 1
  %exitcond.not = icmp eq i32 %42, %2
  br i1 %exitcond.not, label %._crit_edge.loopexit, label %10, !llvm.loop !25

._crit_edge.loopexit:                             ; preds = %41
  %.val12.pre = load i32, ptr %4, align 4, !tbaa !21
  br label %._crit_edge

._crit_edge:                                      ; preds = %._crit_edge.loopexit, %1
  %.val12 = phi i32 [ %.val12.pre, %._crit_edge.loopexit ], [ 0, %1 ]
  %43 = tail call i32 (ptr, ...) @printf(ptr noundef nonnull dereferenceable(1) @.str.12, i32 noundef %0, i32 noundef %.val12)
  %44 = getelementptr inbounds nuw i8, ptr %7, i64 8
  %45 = load ptr, ptr %44, align 8, !tbaa !15
  %.not.i = icmp eq ptr %45, null
  br i1 %.not.i, label %Vec_BitFree.exit, label %46

46:                                               ; preds = %._crit_edge
  tail call void @free(ptr noundef nonnull %45) #18
  br label %Vec_BitFree.exit

Vec_BitFree.exit:                                 ; preds = %._crit_edge, %46
  tail call void @free(ptr noundef nonnull %7) #18
  ret ptr %3
}